; ModuleID = 'source-C-CXX/61/3066.c'
source_filename = "source-C-CXX/61/3066.c"
target datalayout = "e-m:e-p270:32:32-p271:32:32-p272:64:64-i64:64-f80:128-n8:16:32:64-S128"
target triple = "x86_64-pc-linux-gnu"

; Function Attrs: nounwind sspstrong uwtable
define dso_local i32 @main() local_unnamed_addr #0 {
  %1 = alloca [101 x i8], align 16
  %2 = alloca [101 x i8], align 16
  %3 = getelementptr inbounds [101 x i8], [101 x i8]* %1, i64 0, i64 0
  call void @llvm.lifetime.start.p0i8(i64 101, i8* nonnull %3) #4
  %4 = getelementptr inbounds [101 x i8], [101 x i8]* %2, i64 0, i64 0
  call void @llvm.lifetime.start.p0i8(i64 101, i8* nonnull %4) #4
  %5 = call i32 (i8*, ...) bitcast (i32 (...)* @gets to i32 (i8*, ...)*)(i8* nonnull %3) #4
  %6 = load i8, i8* %3, align 16, !tbaa !5
  store i8 %6, i8* %4, align 16, !tbaa !5
  %7 = getelementptr inbounds [101 x i8], [101 x i8]* %1, i64 0, i64 1
  %8 = load i8, i8* %7, align 1, !tbaa !5
  %9 = icmp eq i8 %8, 0
  br i1 %9, label %34, label %10

10:                                               ; preds = %0, %26
  %11 = phi i64 [ %30, %26 ], [ 1, %0 ]
  %12 = phi i8 [ %32, %26 ], [ %8, %0 ]
  %13 = phi i32 [ %28, %26 ], [ 1, %0 ]
  %14 = sext i32 %13 to i64
  %15 = getelementptr inbounds [101 x i8], [101 x i8]* %2, i64 0, i64 %14
  store i8 %12, i8* %15, align 1, !tbaa !5
  %16 = add nsw i32 %13, -1
  %17 = sext i32 %16 to i64
  %18 = getelementptr inbounds [101 x i8], [101 x i8]* %2, i64 0, i64 %17
  %19 = load i8, i8* %18, align 1, !tbaa !5
  %20 = icmp eq i8 %12, 32
  %21 = icmp eq i8 %19, 32
  %22 = and i1 %20, %21
  br i1 %22, label %26, label %23

23:                                               ; preds = %10
  store i8 %12, i8* %15, align 1, !tbaa !5
  %24 = add nsw i32 %13, 1
  %25 = sext i32 %24 to i64
  br label %26

26:                                               ; preds = %10, %23
  %27 = phi i64 [ %14, %10 ], [ %25, %23 ]
  %28 = phi i32 [ %13, %10 ], [ %24, %23 ]
  %29 = getelementptr inbounds [101 x i8], [101 x i8]* %2, i64 0, i64 %27
  store i8 0, i8* %29, align 1, !tbaa !5
  %30 = add nuw i64 %11, 1
  %31 = getelementptr inbounds [101 x i8], [101 x i8]* %1, i64 0, i64 %30
  %32 = load i8, i8* %31, align 1, !tbaa !5
  %33 = icmp eq i8 %32, 0
  br i1 %33, label %34, label %10, !llvm.loop !8

34:                                               ; preds = %26, %0
  %35 = call i32 @puts(i8* nonnull %4)
  call void @llvm.lifetime.end.p0i8(i64 101, i8* nonnull %4) #4
  call void @llvm.lifetime.end.p0i8(i64 101, i8* nonnull %3) #4
  ret i32 0
}

; Function Attrs: argmemonly mustprogress nofree nosync nounwind willreturn
declare void @llvm.lifetime.start.p0i8(i64 immarg, i8* nocapture) #1

declare i32 @gets(...) local_unnamed_addr #2

; Function Attrs: nofree nounwind
declare noundef i32 @puts(i8* nocapture noundef readonly) local_unnamed_addr #3

; Function Attrs: argmemonly mustprogress nofree nosync nounwind willreturn
declare void @llvm.lifetime.end.p0i8(i64 immarg, i8* nocapture) #1


!llvm.module.flags = !{!0, !1, !2, !3}
!llvm.ident = !{!4}

!0 = !{i32 1, !"wchar_size", i32 4}
!1 = !{i32 7, !"PIC Level", i32 2}
!2 = !{i32 7, !"PIE Level", i32 2}
!3 = !{i32 7, !"uwtable", i32 1}
!4 = !{!"clang version 13.0.0"}
!5 = !{!6, !6, i64 0}
!6 = !{!"omnipotent char", !7, i64 0}
!7 = !{!"Simple C/C++ TBAA"}
!8 = distinct !{!8, !9}
!9 = !{!"llvm.loop.mustprogress"}
